target datalayout = "e-m:e-p270:32:32-p271:32:32-p272:64:64-i64:64-i128:128-f80:128-n8:16:32:64-S128"
target triple = "x86_64-pc-linux-gnu"

%struct._cms_typehandler_struct = type { i32, ptr, ptr, ptr, ptr, ptr, i32 }
%struct._cms_io_handler = type { ptr, ptr, i32, i32, [256 x i8], ptr, ptr, ptr, ptr, ptr }

; Function Attrs: nounwind uwtable
define internal ptr @Type_ColorantOrderType_Read(ptr noundef %0, ptr noundef %1, ptr noundef %2, i32 noundef %3) #0 {
  %5 = alloca ptr, align 8
  %6 = alloca ptr, align 8
  %7 = alloca ptr, align 8
  %8 = alloca ptr, align 8
  %9 = alloca i32, align 4
  %10 = alloca ptr, align 8
  %11 = alloca i32, align 4
  store ptr %0, ptr %6, align 8
  store ptr %1, ptr %7, align 8
  store ptr %2, ptr %8, align 8
  store i32 %3, ptr %9, align 4
  %12 = load ptr, ptr %8, align 8
  store i32 0, ptr %12, align 4
  %13 = load ptr, ptr %7, align 8
  %14 = call i32 @_cmsReadUInt32Number(ptr noundef %13, ptr noundef %11)
  %15 = icmp ne i32 %14, 0
  br i1 %15, label %17, label %16

16:                                               ; preds = %4
  store ptr null, ptr %5, align 8
  br label %48

17:                                               ; preds = %4
  %18 = load i32, ptr %11, align 4
  %19 = icmp ugt i32 %18, 16
  br i1 %19, label %20, label %21

20:                                               ; preds = %17
  store ptr null, ptr %5, align 8
  br label %48

21:                                               ; preds = %17
  %22 = load ptr, ptr %6, align 8
  %23 = getelementptr inbounds %struct._cms_typehandler_struct, ptr %22, i32 0, i32 5
  %24 = load ptr, ptr %23, align 8
  %25 = call ptr @_cmsCalloc(ptr noundef %24, i32 noundef 16, i32 noundef 1)
  store ptr %25, ptr %10, align 8
  %26 = load ptr, ptr %10, align 8
  %27 = icmp eq ptr %26, null
  br i1 %27, label %28, label %29

28:                                               ; preds = %21
  store ptr null, ptr %5, align 8
  br label %48

29:                                               ; preds = %21
  %30 = load ptr, ptr %10, align 8
  call void @llvm.memset.p0.i64(ptr align 1 %30, i8 -1, i64 16, i1 false)
  %31 = load ptr, ptr %7, align 8
  %32 = getelementptr inbounds %struct._cms_io_handler, ptr %31, i32 0, i32 5
  %33 = load ptr, ptr %32, align 8
  %34 = load ptr, ptr %7, align 8
  %35 = load ptr, ptr %10, align 8
  %36 = load i32, ptr %11, align 4
  %37 = call i32 %33(ptr noundef %34, ptr noundef %35, i32 noundef 1, i32 noundef %36)
  %38 = load i32, ptr %11, align 4
  %39 = icmp ne i32 %37, %38
  br i1 %39, label %40, label %45

40:                                               ; preds = %29
  %41 = load ptr, ptr %6, align 8
  %42 = getelementptr inbounds %struct._cms_typehandler_struct, ptr %41, i32 0, i32 5
  %43 = load ptr, ptr %42, align 8
  %44 = load ptr, ptr %10, align 8
  call void @_cmsFree(ptr noundef %43, ptr noundef %44)
  store ptr null, ptr %5, align 8
  br label %48

45:                                               ; preds = %29
  %46 = load ptr, ptr %8, align 8
  store i32 1, ptr %46, align 4
  %47 = load ptr, ptr %10, align 8
  store ptr %47, ptr %5, align 8
  br label %48

48:                                               ; preds = %45, %40, %28, %20, %16
  %49 = load ptr, ptr %5, align 8
  ret ptr %49
}