; Function Attrs: nounwind uwtable
define internal ptr @Type_ColorantOrderType_Read(ptr nocapture noundef readonly %0, ptr noundef %1, ptr nocapture noundef writeonly %2, i32 %3) #0 {
  %5 = alloca i32, align 4
  store i32 0, ptr %2, align 4
  %6 = call i32 @_cmsReadUInt32Number(ptr noundef %1, ptr noundef nonnull %5) #13
  %.not = icmp eq i32 %6, 0
  %7 = load i32, ptr %5, align 4
  %8 = icmp ugt i32 %7, 16
  %or.cond = select i1 %.not, i1 true, i1 %8
  br i1 %or.cond, label %23, label %9

9:                                                ; preds = %4
  %10 = getelementptr inbounds i8, ptr %0, i64 40
  %11 = load ptr, ptr %10, align 8
  %12 = call ptr @_cmsCalloc(ptr noundef %11, i32 noundef 16, i32 noundef 1) #13
  %13 = icmp eq ptr %12, null
  br i1 %13, label %23, label %14

14:                                               ; preds = %9
  call void @llvm.memset.p0.i64(ptr noundef nonnull align 1 dereferenceable(16) %12, i8 -1, i64 16, i1 false)
  %15 = getelementptr inbounds i8, ptr %1, i64 280
  %16 = load ptr, ptr %15, align 8
  %17 = load i32, ptr %5, align 4
  %18 = call i32 %16(ptr noundef %1, ptr noundef nonnull %12, i32 noundef 1, i32 noundef %17) #13
  %19 = load i32, ptr %5, align 4
  %.not14 = icmp eq i32 %18, %19
  br i1 %.not14, label %22, label %20

20:                                               ; preds = %14
  %21 = load ptr, ptr %10, align 8
  call void @_cmsFree(ptr noundef %21, ptr noundef nonnull %12) #13
  br label %23

22:                                               ; preds = %14
  store i32 1, ptr %2, align 4
  br label %23

23:                                               ; preds = %9, %4, %22, %20
  %.0 = phi ptr [ null, %20 ], [ %12, %22 ], [ null, %4 ], [ null, %9 ]
  ret ptr %.0
}